target datalayout = "e-m:e-p270:32:32-p271:32:32-p272:64:64-i64:64-i128:128-f80:128-n8:16:32:64-S128"
target triple = "x86_64-pc-linux-gnu"

%struct.H5P_genclass_t = type { ptr, ptr, i32, i64, i32, i32, i32, i8, i32, ptr, ptr, ptr, ptr, ptr, ptr, ptr }
%struct.H5P_genprop_t = type { ptr, i64, ptr, i32, i8, ptr, ptr, ptr, ptr, ptr, ptr, ptr, ptr, ptr }

@H5P_init_g = external global i8, align 1
@H5_libterm_g = external global i8, align 1
@.str.7 = private unnamed_addr constant [100 x i8] c"generated/home/dtcxzyw/WorkSpace/Projects/compilers/llvm-opt-benchmark/bench/hdf5/hdf5/src/H5Pint.c\00", align 1
@H5E_PLIST_g = external global i64, align 8
@H5E_NOTFOUND_g = external global i64, align 8
@.str.34 = private unnamed_addr constant [33 x i8] c"can't find property in skip list\00", align 1
@H5P_next_rev = internal global i32 0, align 4
@H5E_CANTDELETE_g = external global i64, align 8
@__func__.H5P__unregister = private unnamed_addr constant [16 x i8] c"H5P__unregister\00", align 1
@.str.67 = private unnamed_addr constant [37 x i8] c"can't remove property from skip list\00", align 1
@H5_H5P_genprop_t_reg_free_list = internal global { i8, [3 x i8], i32, i32, [4 x i8], ptr, i64, ptr } { i8 0, [3 x i8] zeroinitializer, i32 0, i32 0, [4 x i8] zeroinitializer, ptr @.str.86, i64 104, ptr null }, align 8

; Function Attrs: nounwind uwtable
define internal i32 @H5P__free_prop(ptr noundef %0) #0 {
  %2 = alloca ptr, align 8
  store ptr %0, ptr %2, align 8, !tbaa !68
  %3 = load i8, ptr @H5P_init_g, align 1, !tbaa !7, !range !9, !noundef !10
  %4 = trunc i8 %3 to i1
  br i1 %4, label %9, label %5

5:                                                ; preds = %1
  %6 = load i8, ptr @H5_libterm_g, align 1, !tbaa !7, !range !9, !noundef !10
  %7 = trunc i8 %6 to i1
  %8 = xor i1 %7, true
  br label %9

9:                                                ; preds = %5, %1
  %10 = phi i1 [ true, %1 ], [ %8, %5 ]
  %11 = xor i1 %10, true
  %12 = xor i1 %11, true
  %13 = zext i1 %12 to i32
  %14 = sext i32 %13 to i64
  %15 = call i64 @llvm.expect.i64(i64 %14, i64 1)
  %16 = icmp ne i64 %15, 0
  br i1 %16, label %17, label %40

17:                                               ; preds = %9
  %18 = load ptr, ptr %2, align 8, !tbaa !68
  %19 = getelementptr inbounds nuw %struct.H5P_genprop_t, ptr %18, i32 0, i32 2
  %20 = load ptr, ptr %19, align 8, !tbaa !75
  %21 = icmp ne ptr %20, null
  br i1 %21, label %22, label %27

22:                                               ; preds = %17
  %23 = load ptr, ptr %2, align 8, !tbaa !68
  %24 = getelementptr inbounds nuw %struct.H5P_genprop_t, ptr %23, i32 0, i32 2
  %25 = load ptr, ptr %24, align 8, !tbaa !75
  %26 = call ptr @H5MM_xfree(ptr noundef %25)
  br label %27

27:                                               ; preds = %22, %17
  %28 = load ptr, ptr %2, align 8, !tbaa !68
  %29 = getelementptr inbounds nuw %struct.H5P_genprop_t, ptr %28, i32 0, i32 4
  %30 = load i8, ptr %29, align 4, !tbaa !74, !range !9, !noundef !10
  %31 = trunc i8 %30 to i1
  br i1 %31, label %37, label %32

32:                                               ; preds = %27
  %33 = load ptr, ptr %2, align 8, !tbaa !68
  %34 = getelementptr inbounds nuw %struct.H5P_genprop_t, ptr %33, i32 0, i32 0
  %35 = load ptr, ptr %34, align 8, !tbaa !71
  %36 = call ptr @H5MM_xfree(ptr noundef %35)
  br label %37

37:                                               ; preds = %32, %27
  %38 = load ptr, ptr %2, align 8, !tbaa !68
  %39 = call ptr @H5FL_reg_free(ptr noundef @H5_H5P_genprop_t_reg_free_list, ptr noundef %38)
  store ptr %39, ptr %2, align 8, !tbaa !68
  br label %40

40:                                               ; preds = %37, %9
  ret i32 0
}

; Function Attrs: nounwind uwtable
define i32 @H5P__unregister(ptr noundef %0, ptr noundef %1) #0 {
  %3 = alloca ptr, align 8
  %4 = alloca ptr, align 8
  %5 = alloca ptr, align 8
  %6 = alloca i32, align 4
  %7 = alloca i8, align 1
  store ptr %0, ptr %3, align 8, !tbaa !22
  store ptr %1, ptr %4, align 8, !tbaa !39
  call void @llvm.lifetime.start.p0(i64 8, ptr %5) #8
  call void @llvm.lifetime.start.p0(i64 4, ptr %6) #8
  store i32 0, ptr %6, align 4, !tbaa !3
  call void @llvm.lifetime.start.p0(i64 1, ptr %7) #8
  store i8 0, ptr %7, align 1, !tbaa !7
  %8 = load i8, ptr @H5P_init_g, align 1, !tbaa !7, !range !9, !noundef !10
  %9 = trunc i8 %8 to i1
  br i1 %9, label %14, label %10

10:                                               ; preds = %2
  %11 = load i8, ptr @H5_libterm_g, align 1, !tbaa !7, !range !9, !noundef !10
  %12 = trunc i8 %11 to i1
  %13 = xor i1 %12, true
  br label %14

14:                                               ; preds = %10, %2
  %15 = phi i1 [ true, %2 ], [ %13, %10 ]
  %16 = xor i1 %15, true
  %17 = xor i1 %16, true
  %18 = zext i1 %17 to i32
  %19 = sext i32 %18 to i64
  %20 = call i64 @llvm.expect.i64(i64 %19, i64 1)
  %21 = icmp ne i64 %20, 0
  br i1 %21, label %22, label %88

22:                                               ; preds = %14
  %23 = load ptr, ptr %3, align 8, !tbaa !22
  %24 = getelementptr inbounds nuw %struct.H5P_genclass_t, ptr %23, i32 0, i32 9
  %25 = load ptr, ptr %24, align 8, !tbaa !52
  %26 = load ptr, ptr %4, align 8, !tbaa !39
  %27 = call ptr @H5SL_search(ptr noundef %25, ptr noundef %26)
  store ptr %27, ptr %5, align 8, !tbaa !68
  %28 = icmp eq ptr %27, null
  br i1 %28, label %29, label %48

29:                                               ; preds = %22
  br label %30

30:                                               ; preds = %29
  br label %31

31:                                               ; preds = %30
  br label %32

32:                                               ; preds = %31
  %33 = load i64, ptr @H5E_PLIST_g, align 8, !tbaa !11
  %34 = load i64, ptr @H5E_NOTFOUND_g, align 8, !tbaa !11
  %35 = call i32 (ptr, ptr, i32, i64, i64, ptr, ...) @H5E_printf_stack(ptr noundef @.str.7, ptr noundef @__func__.H5P__unregister, i32 noundef 5240, i64 noundef %33, i64 noundef %34, ptr noundef @.str.34)
  br label %36

36:                                               ; preds = %32
  br label %37

37:                                               ; preds = %36
  store i8 1, ptr %7, align 1, !tbaa !7
  %38 = load i8, ptr %7, align 1, !tbaa !7, !range !9, !noundef !10
  %39 = trunc i8 %38 to i1
  %40 = zext i1 %39 to i8
  store i8 %40, ptr %7, align 1, !tbaa !7
  br label %41

41:                                               ; preds = %37
  br label %42

42:                                               ; preds = %41
  br label %43

43:                                               ; preds = %42
  store i32 -1, ptr %6, align 4, !tbaa !3
  br label %87

44:                                               ; No predecessors!
  br label %45

45:                                               ; preds = %44
  br label %46

46:                                               ; preds = %45
  br label %47

47:                                               ; preds = %46
  br label %48

48:                                               ; preds = %47, %22
  %49 = load ptr, ptr %3, align 8, !tbaa !22
  %50 = getelementptr inbounds nuw %struct.H5P_genclass_t, ptr %49, i32 0, i32 9
  %51 = load ptr, ptr %50, align 8, !tbaa !52
  %52 = load ptr, ptr %5, align 8, !tbaa !68
  %53 = getelementptr inbounds nuw %struct.H5P_genprop_t, ptr %52, i32 0, i32 0
  %54 = load ptr, ptr %53, align 8, !tbaa !71
  %55 = call ptr @H5SL_remove(ptr noundef %51, ptr noundef %54)
  %56 = icmp eq ptr %55, null
  br i1 %56, label %57, label %76

57:                                               ; preds = %48
  br label %58

58:                                               ; preds = %57
  br label %59

59:                                               ; preds = %58
  br label %60

60:                                               ; preds = %59
  %61 = load i64, ptr @H5E_PLIST_g, align 8, !tbaa !11
  %62 = load i64, ptr @H5E_CANTDELETE_g, align 8, !tbaa !11
  %63 = call i32 (ptr, ptr, i32, i64, i64, ptr, ...) @H5E_printf_stack(ptr noundef @.str.7, ptr noundef @__func__.H5P__unregister, i32 noundef 5244, i64 noundef %61, i64 noundef %62, ptr noundef @.str.67)
  br label %64

64:                                               ; preds = %60
  br label %65

65:                                               ; preds = %64
  store i8 1, ptr %7, align 1, !tbaa !7
  %66 = load i8, ptr %7, align 1, !tbaa !7, !range !9, !noundef !10
  %67 = trunc i8 %66 to i1
  %68 = zext i1 %67 to i8
  store i8 %68, ptr %7, align 1, !tbaa !7
  br label %69

69:                                               ; preds = %65
  br label %70

70:                                               ; preds = %69
  br label %71

71:                                               ; preds = %70
  store i32 -1, ptr %6, align 4, !tbaa !3
  br label %87

72:                                               ; No predecessors!
  br label %73

73:                                               ; preds = %72
  br label %74

74:                                               ; preds = %73
  br label %75

75:                                               ; preds = %74
  br label %76

76:                                               ; preds = %75, %48
  %77 = load ptr, ptr %5, align 8, !tbaa !68
  %78 = call i32 @H5P__free_prop(ptr noundef %77)
  %79 = load ptr, ptr %3, align 8, !tbaa !22
  %80 = getelementptr inbounds nuw %struct.H5P_genclass_t, ptr %79, i32 0, i32 3
  %81 = load i64, ptr %80, align 8, !tbaa !46
  %82 = add i64 %81, -1
  store i64 %82, ptr %80, align 8, !tbaa !46
  %83 = load i32, ptr @H5P_next_rev, align 4, !tbaa !3
  %84 = add i32 %83, 1
  store i32 %84, ptr @H5P_next_rev, align 4, !tbaa !3
  %85 = load ptr, ptr %3, align 8, !tbaa !22
  %86 = getelementptr inbounds nuw %struct.H5P_genclass_t, ptr %85, i32 0, i32 8
  store i32 %83, ptr %86, align 8, !tbaa !51
  br label %87

87:                                               ; preds = %76, %71, %43
  br label %88

88:                                               ; preds = %87, %14
  %89 = load i32, ptr %6, align 4, !tbaa !3
  call void @llvm.lifetime.end.p0(i64 1, ptr %7) #8
  call void @llvm.lifetime.end.p0(i64 4, ptr %6) #8
  call void @llvm.lifetime.end.p0(i64 8, ptr %5) #8
  ret i32 %89
}