; Function Attrs: nounwind uwtable
define range(i32 -1, 1) i32 @H5P__unregister(ptr noundef captures(none) %0, ptr noundef %1) local_unnamed_addr #0 {
  %3 = load i8, ptr @H5P_init_g, align 1, !tbaa !3, !range !7, !noundef !8
  %4 = trunc nuw i8 %3 to i1
  %5 = load i8, ptr @H5_libterm_g, align 1, !range !7
  %6 = trunc nuw i8 %5 to i1
  %7 = xor i1 %6, true
  %8 = select i1 %4, i1 true, i1 %7
  br i1 %8, label %9, label %54, !prof !9

9:                                                ; preds = %2
  %10 = getelementptr inbounds nuw i8, ptr %0, i64 56
  %11 = load ptr, ptr %10, align 8, !tbaa !47
  %12 = tail call ptr @H5SL_search(ptr noundef %11, ptr noundef %1) #14
  %13 = icmp eq ptr %12, null
  br i1 %13, label %14, label %18

14:                                               ; preds = %9
  %15 = load i64, ptr @H5E_PLIST_g, align 8, !tbaa !10
  %16 = load i64, ptr @H5E_NOTFOUND_g, align 8, !tbaa !10
  %17 = tail call i32 (ptr, ptr, i32, i64, i64, ptr, ...) @H5E_printf_stack(ptr noundef nonnull @.str.7, ptr noundef nonnull @__func__.H5P__unregister, i32 noundef 5240, i64 noundef %15, i64 noundef %16, ptr noundef nonnull @.str.34) #14
  br label %54

18:                                               ; preds = %9
  %19 = load ptr, ptr %10, align 8, !tbaa !47
  %20 = load ptr, ptr %12, align 8, !tbaa !61
  %21 = tail call ptr @H5SL_remove(ptr noundef %19, ptr noundef %20) #14
  %22 = icmp eq ptr %21, null
  br i1 %22, label %23, label %27

23:                                               ; preds = %18
  %24 = load i64, ptr @H5E_PLIST_g, align 8, !tbaa !10
  %25 = load i64, ptr @H5E_CANTDELETE_g, align 8, !tbaa !10
  %26 = tail call i32 (ptr, ptr, i32, i64, i64, ptr, ...) @H5E_printf_stack(ptr noundef nonnull @.str.7, ptr noundef nonnull @__func__.H5P__unregister, i32 noundef 5244, i64 noundef %24, i64 noundef %25, ptr noundef nonnull @.str.67) #14
  br label %54

27:                                               ; preds = %18
  %28 = load i8, ptr @H5P_init_g, align 1, !tbaa !3, !range !7, !noundef !8
  %29 = trunc nuw i8 %28 to i1
  %30 = load i8, ptr @H5_libterm_g, align 1, !range !7
  %31 = trunc nuw i8 %30 to i1
  %32 = xor i1 %31, true
  %33 = select i1 %29, i1 true, i1 %32
  br i1 %33, label %34, label %H5P__free_prop.exit, !prof !9

34:                                               ; preds = %27
  %35 = getelementptr inbounds nuw i8, ptr %12, i64 16
  %36 = load ptr, ptr %35, align 8, !tbaa !72
  %.not.i = icmp eq ptr %36, null
  br i1 %.not.i, label %39, label %37

37:                                               ; preds = %34
  %38 = tail call ptr @H5MM_xfree(ptr noundef nonnull %36) #14
  br label %39

39:                                               ; preds = %37, %34
  %40 = getelementptr inbounds nuw i8, ptr %12, i64 28
  %41 = load i8, ptr %40, align 4, !tbaa !71, !range !7, !noundef !8
  %42 = trunc nuw i8 %41 to i1
  br i1 %42, label %46, label %43

43:                                               ; preds = %39
  %44 = load ptr, ptr %12, align 8, !tbaa !61
  %45 = tail call ptr @H5MM_xfree(ptr noundef %44) #14
  br label %46

46:                                               ; preds = %43, %39
  %47 = tail call ptr @H5FL_reg_free(ptr noundef nonnull @H5_H5P_genprop_t_reg_free_list, ptr noundef nonnull %12) #14
  br label %H5P__free_prop.exit

H5P__free_prop.exit:                              ; preds = %27, %46
  %48 = getelementptr inbounds nuw i8, ptr %0, i64 24
  %49 = load i64, ptr %48, align 8, !tbaa !60
  %50 = add i64 %49, -1
  store i64 %50, ptr %48, align 8, !tbaa !60
  %51 = load i32, ptr @H5P_next_rev, align 4, !tbaa !45
  %52 = add i32 %51, 1
  store i32 %52, ptr @H5P_next_rev, align 4, !tbaa !45
  %53 = getelementptr inbounds nuw i8, ptr %0, i64 48
  store i32 %51, ptr %53, align 8, !tbaa !46
  br label %54

54:                                               ; preds = %14, %23, %H5P__free_prop.exit, %2
  %.0 = phi i32 [ -1, %14 ], [ -1, %23 ], [ 0, %H5P__free_prop.exit ], [ 0, %2 ]
  ret i32 %.0
}